target datalayout = "e-m:e-p270:32:32-p271:32:32-p272:64:64-i64:64-i128:128-f80:128-n8:16:32:64-S128"
target triple = "x86_64-pc-linux-gnu"

%struct._spdu_someip_mapping = type { i32, i32, i32, i32, i32 }
%struct._someip_info = type { i16, i16, i16, i16, i8, i8 }

@data_spdu_someip_mappings = internal global ptr null, align 8
@.str.311 = private unnamed_addr constant [29 x i8] c"%s:%u: failed assertion \22%s\22\00", align 1
@.str.312 = private unnamed_addr constant [36 x i8] c"epan/dissectors/packet-signal-pdu.c\00", align 1
@.str.313 = private unnamed_addr constant [12 x i8] c"someip_info\00", align 1

; Function Attrs: nounwind null_pointer_is_valid sspstrong uwtable
define internal i64 @spdu_someip_key(i16 noundef zeroext %0, i16 noundef zeroext %1, i8 noundef zeroext %2, i8 noundef zeroext %3) #3 {
  %5 = alloca i16, align 2
  %6 = alloca i16, align 2
  %7 = alloca i8, align 1
  %8 = alloca i8, align 1
  store i16 %0, ptr %5, align 2
  store i16 %1, ptr %6, align 2
  store i8 %2, ptr %7, align 1
  store i8 %3, ptr %8, align 1
  %9 = load i16, ptr %6, align 2
  %10 = zext i16 %9 to i64
  %11 = load i16, ptr %5, align 2
  %12 = zext i16 %11 to i64
  %13 = shl i64 %12, 16
  %14 = or i64 %10, %13
  %15 = load i8, ptr %7, align 1
  %16 = zext i8 %15 to i64
  %17 = shl i64 %16, 32
  %18 = or i64 %14, %17
  %19 = load i8, ptr %8, align 1
  %20 = zext i8 %19 to i64
  %21 = shl i64 %20, 40
  %22 = or i64 %18, %21
  ret i64 %22
}

; Function Attrs: null_pointer_is_valid sspstrong uwtable
define internal i32 @dissect_spdu_message_someip(ptr noundef %0, ptr noundef %1, ptr noundef %2, ptr noundef %3) #0 {
  %5 = alloca i32, align 4
  %6 = alloca ptr, align 8
  %7 = alloca ptr, align 8
  %8 = alloca ptr, align 8
  %9 = alloca ptr, align 8
  %10 = alloca ptr, align 8
  %11 = alloca i32, align 4
  %12 = alloca i64, align 8
  %13 = alloca ptr, align 8
  store ptr %0, ptr %6, align 8
  store ptr %1, ptr %7, align 8
  store ptr %2, ptr %8, align 8
  store ptr %3, ptr %9, align 8
  call void @llvm.lifetime.start.p0(i64 8, ptr %10) #14
  %14 = load ptr, ptr %9, align 8
  store ptr %14, ptr %10, align 8
  %15 = load ptr, ptr %10, align 8
  %16 = icmp ne ptr %15, null
  br i1 %16, label %17, label %18

17:                                               ; preds = %4
  br label %20

18:                                               ; preds = %4
  call void (ptr, ...) @proto_report_dissector_bug(ptr noundef @.str.311, ptr noundef @.str.312, i32 noundef 2452, ptr noundef @.str.313) #18
  unreachable

19:                                               ; No predecessors!
  br label %20

20:                                               ; preds = %19, %17
  %21 = load ptr, ptr @data_spdu_someip_mappings, align 8
  %22 = icmp eq ptr %21, null
  br i1 %22, label %23, label %24

23:                                               ; preds = %20
  store i32 0, ptr %5, align 4
  store i32 1, ptr %11, align 4
  br label %52

24:                                               ; preds = %20
  call void @llvm.lifetime.start.p0(i64 8, ptr %12) #14
  %25 = load ptr, ptr %10, align 8
  %26 = getelementptr inbounds nuw %struct._someip_info, ptr %25, i32 0, i32 0
  %27 = load i16, ptr %26, align 2
  %28 = load ptr, ptr %10, align 8
  %29 = getelementptr inbounds nuw %struct._someip_info, ptr %28, i32 0, i32 1
  %30 = load i16, ptr %29, align 2
  %31 = load ptr, ptr %10, align 8
  %32 = getelementptr inbounds nuw %struct._someip_info, ptr %31, i32 0, i32 5
  %33 = load i8, ptr %32, align 1
  %34 = load ptr, ptr %10, align 8
  %35 = getelementptr inbounds nuw %struct._someip_info, ptr %34, i32 0, i32 4
  %36 = load i8, ptr %35, align 2
  %37 = call i64 @spdu_someip_key(i16 noundef zeroext %27, i16 noundef zeroext %30, i8 noundef zeroext %33, i8 noundef zeroext %36)
  store i64 %37, ptr %12, align 8
  call void @llvm.lifetime.start.p0(i64 8, ptr %13) #14
  %38 = load ptr, ptr @data_spdu_someip_mappings, align 8
  %39 = call ptr @g_hash_table_lookup(ptr noundef %38, ptr noundef %12)
  store ptr %39, ptr %13, align 8
  %40 = load ptr, ptr %13, align 8
  %41 = icmp eq ptr %40, null
  br i1 %41, label %42, label %43

42:                                               ; preds = %24
  store i32 0, ptr %5, align 4
  store i32 1, ptr %11, align 4
  br label %51

43:                                               ; preds = %24
  %44 = load ptr, ptr %6, align 8
  %45 = load ptr, ptr %7, align 8
  %46 = load ptr, ptr %8, align 8
  %47 = load ptr, ptr %13, align 8
  %48 = getelementptr inbounds nuw %struct._spdu_someip_mapping, ptr %47, i32 0, i32 4
  %49 = load i32, ptr %48, align 4
  %50 = call i32 @dissect_spdu_payload(ptr noundef %44, ptr noundef %45, ptr noundef %46, i32 noundef %49, i1 noundef zeroext false)
  store i32 %50, ptr %5, align 4
  store i32 1, ptr %11, align 4
  br label %51

51:                                               ; preds = %43, %42
  call void @llvm.lifetime.end.p0(i64 8, ptr %13) #14
  call void @llvm.lifetime.end.p0(i64 8, ptr %12) #14
  br label %52

52:                                               ; preds = %51, %23
  call void @llvm.lifetime.end.p0(i64 8, ptr %10) #14
  %53 = load i32, ptr %5, align 4
  ret i32 %53
}