; Function Attrs: null_pointer_is_valid sspstrong uwtable
define internal i32 @dissect_spdu_message_someip(ptr noundef %0, ptr noundef %1, ptr noundef %2, ptr noundef readonly captures(address_is_null) %3) #0 {
  %5 = alloca i64, align 8
  %.not = icmp eq ptr %3, null
  br i1 %.not, label %6, label %7

6:                                                ; preds = %4
  tail call void (ptr, ...) @proto_report_dissector_bug(ptr noundef nonnull @.str.311, ptr noundef nonnull @.str.312, i32 noundef 2452, ptr noundef nonnull @.str.313) #20
  unreachable

7:                                                ; preds = %4
  %8 = load ptr, ptr @data_spdu_someip_mappings, align 8
  %9 = icmp eq ptr %8, null
  br i1 %9, label %35, label %10

10:                                               ; preds = %7
  call void @llvm.lifetime.start.p0(i64 8, ptr nonnull %5) #16
  %11 = load i16, ptr %3, align 2
  %12 = getelementptr inbounds nuw i8, ptr %3, i64 2
  %13 = load i16, ptr %12, align 2
  %14 = getelementptr inbounds nuw i8, ptr %3, i64 9
  %15 = load i8, ptr %14, align 1
  %16 = getelementptr inbounds nuw i8, ptr %3, i64 8
  %17 = load i8, ptr %16, align 2
  %18 = zext i16 %13 to i64
  %19 = zext i16 %11 to i64
  %20 = shl nuw nsw i64 %19, 16
  %21 = or disjoint i64 %20, %18
  %22 = zext i8 %15 to i64
  %23 = shl nuw nsw i64 %22, 32
  %24 = or disjoint i64 %21, %23
  %25 = zext i8 %17 to i64
  %26 = shl nuw nsw i64 %25, 40
  %27 = or disjoint i64 %24, %26
  store i64 %27, ptr %5, align 8
  %28 = call ptr @g_hash_table_lookup(ptr noundef nonnull %8, ptr noundef nonnull %5)
  %29 = icmp eq ptr %28, null
  br i1 %29, label %34, label %30

30:                                               ; preds = %10
  %31 = getelementptr inbounds nuw i8, ptr %28, i64 16
  %32 = load i32, ptr %31, align 4
  %33 = call fastcc i32 @dissect_spdu_payload(ptr noundef %0, ptr noundef %1, ptr noundef %2, i32 noundef %32, i1 noundef zeroext false)
  br label %34

34:                                               ; preds = %10, %30
  %.1 = phi i32 [ %33, %30 ], [ 0, %10 ]
  call void @llvm.lifetime.end.p0(i64 8, ptr nonnull %5) #16
  br label %35

35:                                               ; preds = %7, %34
  %.0 = phi i32 [ %.1, %34 ], [ 0, %7 ]
  ret i32 %.0
}